; ModuleID = '48/402.c'
source_filename = "48/402.c"
target datalayout = "e-m:e-p270:32:32-p271:32:32-p272:64:64-i64:64-f80:128-n8:16:32:64-S128"
target triple = "x86_64-pc-linux-gnu"

@.str = private unnamed_addr constant [6 x i8] c"%d %d\00", align 1
@.str.1 = private unnamed_addr constant [4 x i8] c"%d \00", align 1
@.str.2 = private unnamed_addr constant [4 x i8] c"%d\0A\00", align 1

; Function Attrs: noinline nounwind uwtable
define dso_local i32 @main() #0 {
  %1 = alloca i32, align 4
  %2 = alloca [11 x [11 x [5 x i32]]], align 16
  %3 = alloca i32, align 4
  %4 = alloca i32, align 4
  %5 = alloca i32, align 4
  %6 = alloca i32, align 4
  %7 = alloca i32, align 4
  %8 = alloca i32, align 4
  store i32 0, i32* %1, align 4
  %9 = bitcast [11 x [11 x [5 x i32]]]* %2 to i8*
  call void @llvm.memset.p0i8.i64(i8* align 16 %9, i8 0, i64 2420, i1 false)
  %10 = getelementptr inbounds [11 x [11 x [5 x i32]]], [11 x [11 x [5 x i32]]]* %2, i64 0, i64 5
  %11 = getelementptr inbounds [11 x [5 x i32]], [11 x [5 x i32]]* %10, i64 0, i64 5
  %12 = getelementptr inbounds [5 x i32], [5 x i32]* %11, i64 0, i64 0
  %13 = call i32 (i8*, ...) @__isoc99_scanf(i8* getelementptr inbounds ([6 x i8], [6 x i8]* @.str, i64 0, i64 0), i32* %12, i32* %5)
  store i32 1, i32* %6, align 4
  br label %14

14:                                               ; preds = %99, %0
  %15 = load i32, i32* %6, align 4
  %16 = load i32, i32* %5, align 4
  %17 = icmp sle i32 %15, %16
  br i1 %17, label %18, label %102

18:                                               ; preds = %14
  store i32 1, i32* %3, align 4
  br label %19

19:                                               ; preds = %95, %18
  %20 = load i32, i32* %3, align 4
  %21 = icmp sle i32 %20, 9
  br i1 %21, label %22, label %98

22:                                               ; preds = %19
  store i32 1, i32* %4, align 4
  br label %23

23:                                               ; preds = %91, %22
  %24 = load i32, i32* %4, align 4
  %25 = icmp sle i32 %24, 9
  br i1 %25, label %26, label %94

26:                                               ; preds = %23
  %27 = load i32, i32* %3, align 4
  %28 = sext i32 %27 to i64
  %29 = getelementptr inbounds [11 x [11 x [5 x i32]]], [11 x [11 x [5 x i32]]]* %2, i64 0, i64 %28
  %30 = load i32, i32* %4, align 4
  %31 = sext i32 %30 to i64
  %32 = getelementptr inbounds [11 x [5 x i32]], [11 x [5 x i32]]* %29, i64 0, i64 %31
  %33 = load i32, i32* %6, align 4
  %34 = sub nsw i32 %33, 1
  %35 = sext i32 %34 to i64
  %36 = getelementptr inbounds [5 x i32], [5 x i32]* %32, i64 0, i64 %35
  %37 = load i32, i32* %36, align 4
  %38 = load i32, i32* %3, align 4
  %39 = sext i32 %38 to i64
  %40 = getelementptr inbounds [11 x [11 x [5 x i32]]], [11 x [11 x [5 x i32]]]* %2, i64 0, i64 %39
  %41 = load i32, i32* %4, align 4
  %42 = sext i32 %41 to i64
  %43 = getelementptr inbounds [11 x [5 x i32]], [11 x [5 x i32]]* %40, i64 0, i64 %42
  %44 = load i32, i32* %6, align 4
  %45 = sext i32 %44 to i64
  %46 = getelementptr inbounds [5 x i32], [5 x i32]* %43, i64 0, i64 %45
  %47 = load i32, i32* %46, align 4
  %48 = add nsw i32 %47, %37
  store i32 %48, i32* %46, align 4
  store i32 -1, i32* %7, align 4
  br label %49

49:                                               ; preds = %87, %26
  %50 = load i32, i32* %7, align 4
  %51 = icmp sle i32 %50, 1
  br i1 %51, label %52, label %90

52:                                               ; preds = %49
  store i32 -1, i32* %8, align 4
  br label %53

53:                                               ; preds = %83, %52
  %54 = load i32, i32* %8, align 4
  %55 = icmp sle i32 %54, 1
  br i1 %55, label %56, label %86

56:                                               ; preds = %53
  %57 = load i32, i32* %3, align 4
  %58 = sext i32 %57 to i64
  %59 = getelementptr inbounds [11 x [11 x [5 x i32]]], [11 x [11 x [5 x i32]]]* %2, i64 0, i64 %58
  %60 = load i32, i32* %4, align 4
  %61 = sext i32 %60 to i64
  %62 = getelementptr inbounds [11 x [5 x i32]], [11 x [5 x i32]]* %59, i64 0, i64 %61
  %63 = load i32, i32* %6, align 4
  %64 = sub nsw i32 %63, 1
  %65 = sext i32 %64 to i64
  %66 = getelementptr inbounds [5 x i32], [5 x i32]* %62, i64 0, i64 %65
  %67 = load i32, i32* %66, align 4
  %68 = load i32, i32* %3, align 4
  %69 = load i32, i32* %7, align 4
  %70 = add nsw i32 %68, %69
  %71 = sext i32 %70 to i64
  %72 = getelementptr inbounds [11 x [11 x [5 x i32]]], [11 x [11 x [5 x i32]]]* %2, i64 0, i64 %71
  %73 = load i32, i32* %4, align 4
  %74 = load i32, i32* %8, align 4
  %75 = add nsw i32 %73, %74
  %76 = sext i32 %75 to i64
  %77 = getelementptr inbounds [11 x [5 x i32]], [11 x [5 x i32]]* %72, i64 0, i64 %76
  %78 = load i32, i32* %6, align 4
  %79 = sext i32 %78 to i64
  %80 = getelementptr inbounds [5 x i32], [5 x i32]* %77, i64 0, i64 %79
  %81 = load i32, i32* %80, align 4
  %82 = add nsw i32 %81, %67
  store i32 %82, i32* %80, align 4
  br label %83

83:                                               ; preds = %56
  %84 = load i32, i32* %8, align 4
  %85 = add nsw i32 %84, 1
  store i32 %85, i32* %8, align 4
  br label %53

86:                                               ; preds = %53
  br label %87

87:                                               ; preds = %86
  %88 = load i32, i32* %7, align 4
  %89 = add nsw i32 %88, 1
  store i32 %89, i32* %7, align 4
  br label %49

90:                                               ; preds = %49
  br label %91

91:                                               ; preds = %90
  %92 = load i32, i32* %4, align 4
  %93 = add nsw i32 %92, 1
  store i32 %93, i32* %4, align 4
  br label %23

94:                                               ; preds = %23
  br label %95

95:                                               ; preds = %94
  %96 = load i32, i32* %3, align 4
  %97 = add nsw i32 %96, 1
  store i32 %97, i32* %3, align 4
  br label %19

98:                                               ; preds = %19
  br label %99

99:                                               ; preds = %98
  %100 = load i32, i32* %6, align 4
  %101 = add nsw i32 %100, 1
  store i32 %101, i32* %6, align 4
  br label %14

102:                                              ; preds = %14
  store i32 1, i32* %3, align 4
  br label %103

103:                                              ; preds = %137, %102
  %104 = load i32, i32* %3, align 4
  %105 = icmp sle i32 %104, 9
  br i1 %105, label %106, label %140

106:                                              ; preds = %103
  store i32 1, i32* %4, align 4
  br label %107

107:                                              ; preds = %122, %106
  %108 = load i32, i32* %4, align 4
  %109 = icmp sle i32 %108, 8
  br i1 %109, label %110, label %125

110:                                              ; preds = %107
  %111 = load i32, i32* %3, align 4
  %112 = sext i32 %111 to i64
  %113 = getelementptr inbounds [11 x [11 x [5 x i32]]], [11 x [11 x [5 x i32]]]* %2, i64 0, i64 %112
  %114 = load i32, i32* %4, align 4
  %115 = sext i32 %114 to i64
  %116 = getelementptr inbounds [11 x [5 x i32]], [11 x [5 x i32]]* %113, i64 0, i64 %115
  %117 = load i32, i32* %5, align 4
  %118 = sext i32 %117 to i64
  %119 = getelementptr inbounds [5 x i32], [5 x i32]* %116, i64 0, i64 %118
  %120 = load i32, i32* %119, align 4
  %121 = call i32 (i8*, ...) @printf(i8* getelementptr inbounds ([4 x i8], [4 x i8]* @.str.1, i64 0, i64 0), i32 %120)
  br label %122

122:                                              ; preds = %110
  %123 = load i32, i32* %4, align 4
  %124 = add nsw i32 %123, 1
  store i32 %124, i32* %4, align 4
  br label %107

125:                                              ; preds = %107
  %126 = load i32, i32* %3, align 4
  %127 = sext i32 %126 to i64
  %128 = getelementptr inbounds [11 x [11 x [5 x i32]]], [11 x [11 x [5 x i32]]]* %2, i64 0, i64 %127
  %129 = load i32, i32* %4, align 4
  %130 = sext i32 %129 to i64
  %131 = getelementptr inbounds [11 x [5 x i32]], [11 x [5 x i32]]* %128, i64 0, i64 %130
  %132 = load i32, i32* %5, align 4
  %133 = sext i32 %132 to i64
  %134 = getelementptr inbounds [5 x i32], [5 x i32]* %131, i64 0, i64 %133
  %135 = load i32, i32* %134, align 4
  %136 = call i32 (i8*, ...) @printf(i8* getelementptr inbounds ([4 x i8], [4 x i8]* @.str.2, i64 0, i64 0), i32 %135)
  br label %137

137:                                              ; preds = %125
  %138 = load i32, i32* %3, align 4
  %139 = add nsw i32 %138, 1
  store i32 %139, i32* %3, align 4
  br label %103

140:                                              ; preds = %103
  %141 = load i32, i32* %1, align 4
  ret i32 %141
}

; Function Attrs: argmemonly nounwind willreturn
declare void @llvm.memset.p0i8.i64(i8* nocapture writeonly, i8, i64, i1 immarg) #1

declare dso_local i32 @__isoc99_scanf(i8*, ...) #2

declare dso_local i32 @printf(i8*, ...) #2


!llvm.module.flags = !{!0}
!llvm.ident = !{!1}

!0 = !{i32 1, !"wchar_size", i32 4}
!1 = !{!"clang version 10.0.0-4ubuntu1 "}
